EXPORTS
	??1CGameContainer@@UAE@XZ @ 1 NONAME ; CGameContainer::~CGameContainer(void)
	??1CHelpContainer@@UAE@XZ @ 2 NONAME ; CHelpContainer::~CHelpContainer(void)
	??1CMainMenuContainer@@UAE@XZ @ 3 NONAME ; CMainMenuContainer::~CMainMenuContainer(void)
	??1CRankContainer@@UAE@XZ @ 4 NONAME ; CRankContainer::~CRankContainer(void)
	??1CTe2LayoutManager@@UAE@XZ @ 5 NONAME ; CTe2LayoutManager::~CTe2LayoutManager(void)
	?AddMenuItemL@CMainMenuContainer@@QAEXABVTDesC16@@HH@Z @ 6 NONAME ; void CMainMenuContainer::AddMenuItemL(class TDesC16 const &, int, int)
	?AddTextItemL@CHelpContainer@@QAEXABVTDesC16@@@Z @ 7 NONAME ; void CHelpContainer::AddTextItemL(class TDesC16 const &)
	?CleanRankL@CRankContainer@@QAEXXZ @ 8 NONAME ; void CRankContainer::CleanRankL(void)
	?DisableMenuItem@CMainMenuContainer@@QAEXH@Z @ 9 NONAME ; void CMainMenuContainer::DisableMenuItem(int)
	?EnableMenuItem@CMainMenuContainer@@QAEXH@Z @ 10 NONAME ; void CMainMenuContainer::EnableMenuItem(int)
	?LayoutRect@CTe2LayoutManager@@QBE?AVTRect@@W4TTe2Component@@@Z @ 11 NONAME ; class TRect CTe2LayoutManager::LayoutRect(enum TTe2Component) const
	?NewL@CGameContainer@@SAPAV1@ABVTRect@@AAVMModelObserver@@@Z @ 12 NONAME ; class CGameContainer * CGameContainer::NewL(class TRect const &, class MModelObserver &)
	?NewL@CHelpContainer@@SAPAV1@ABVTRect@@AAVMModelObserver@@@Z @ 13 NONAME ; class CHelpContainer * CHelpContainer::NewL(class TRect const &, class MModelObserver &)
	?NewL@CMainMenuContainer@@SAPAV1@ABVTRect@@AAVMModelObserver@@@Z @ 14 NONAME ; class CMainMenuContainer * CMainMenuContainer::NewL(class TRect const &, class MModelObserver &)
	?NewL@CRankContainer@@SAPAV1@ABVTRect@@AAVMModelObserver@@@Z @ 15 NONAME ; class CRankContainer * CRankContainer::NewL(class TRect const &, class MModelObserver &)
	?NewL@CTe2LayoutManager@@SAPAV1@XZ @ 16 NONAME ; class CTe2LayoutManager * CTe2LayoutManager::NewL(void)
	?Pause@CGameContainer@@QAEXXZ @ 17 NONAME ; void CGameContainer::Pause(void)
	?RemoveMenuItem@CMainMenuContainer@@QAEXH@Z @ 18 NONAME ; void CMainMenuContainer::RemoveMenuItem(int)
	?Resolution@CTe2LayoutManager@@SA?AW4TResolution@@XZ @ 19 NONAME ; enum TResolution CTe2LayoutManager::Resolution(void)
	?ResolutionChanged@CTe2LayoutManager@@QAEXW4TOrientation@@@Z @ 20 NONAME ; void CTe2LayoutManager::ResolutionChanged(enum TOrientation)
	?Restart@CGameContainer@@QAEXXZ @ 21 NONAME ; void CGameContainer::Restart(void)
	?Resume@CGameContainer@@QAEXXZ @ 22 NONAME ; void CGameContainer::Resume(void)
	?SetAudio@CGameContainer@@QAEXH@Z @ 23 NONAME ; void CGameContainer::SetAudio(int)
	?SetMenuBar1L@CBaseContainer@@QAEXABVTDesC16@@H@Z @ 24 NONAME ; void CBaseContainer::SetMenuBar1L(class TDesC16 const &, int)
	?SetMenuBar2L@CBaseContainer@@QAEXABVTDesC16@@H@Z @ 25 NONAME ; void CBaseContainer::SetMenuBar2L(class TDesC16 const &, int)
	?SetSelectedItem@CMainMenuContainer@@QAEXH@Z @ 26 NONAME ; void CMainMenuContainer::SetSelectedItem(int)
	?Start@CHelpContainer@@QAEXXZ @ 27 NONAME ; void CHelpContainer::Start(void)
	?StartL@CGameContainer@@QAEXW4TModeType@@@Z @ 28 NONAME ; void CGameContainer::StartL(enum TModeType)
	?Stop@CGameContainer@@QAEXXZ @ 29 NONAME ; void CGameContainer::Stop(void)
	?StoreL@CBaseContainer@@QAEXXZ @ 30 NONAME ; void CBaseContainer::StoreL(void)

